; Function Attrs: mustprogress uwtable
define noundef i64 @_ZNK8facebook5velox6memory13MemoryManager13getTotalBytesEv(ptr nocapture noundef nonnull readonly align 8 dereferenceable(176) %this) local_unnamed_addr #0 align 2 {
entry:
  %allocator_ = getelementptr inbounds i8, ptr %this, i64 8
  %0 = load ptr, ptr %allocator_, align 8
  %vtable = load ptr, ptr %0, align 8
  %vfn = getelementptr inbounds i8, ptr %vtable, i64 96
  %1 = load ptr, ptr %vfn, align 8
  %call2 = tail call noundef i64 %1(ptr noundef nonnull align 8 dereferenceable(880) %0)
  ret i64 %call2
}